target datalayout = "e-m:e-p270:32:32-p271:32:32-p272:64:64-i64:64-i128:128-f80:128-n8:16:32:64-S128"
target triple = "x86_64-pc-linux-gnu"

%union.Value = type { ptr }
%struct.lua_State = type { ptr, i8, i8, i8, ptr, ptr, ptr, ptr, ptr, ptr, ptr, ptr, ptr, i32, i32, i16, i16, i8, i8, i32, i32, ptr, %struct.lua_TValue, %struct.lua_TValue, ptr, ptr, ptr, i64 }
%struct.lua_TValue = type { %union.Value, i32 }
%struct.global_State = type { %struct.stringtable, ptr, ptr, i8, i8, i32, ptr, ptr, ptr, ptr, ptr, ptr, %struct.Mbuffer, i64, i64, i64, i64, i32, i32, ptr, %struct.lua_TValue, ptr, %struct.UpVal, [9 x ptr], [17 x ptr] }
%struct.stringtable = type { ptr, i32, i32 }
%struct.Mbuffer = type { ptr, i64, i64 }
%struct.UpVal = type { ptr, i8, i8, ptr, %union.anon }
%union.anon = type { %struct.lua_TValue }
%struct.CallInfo = type { ptr, ptr, ptr, ptr, i32, i32 }
%struct.CClosure = type { ptr, i8, i8, i8, i8, ptr, ptr, ptr, [1 x %struct.lua_TValue] }

@.str.7 = private unnamed_addr constant [1 x i8] zeroinitializer, align 1
@luaO_nilobject_ = internal constant { %union.Value, i32, [4 x i8] } zeroinitializer, align 8
@luaT_typenames = internal constant [11 x ptr] [ptr @.str.22, ptr @.str.23, ptr @.str.24, ptr @.str.25, ptr @.str.26, ptr @.str.27, ptr @.str.28, ptr @.str.24, ptr @.str.29, ptr @.str.30, ptr @.str.31], align 16
@.str.133 = private unnamed_addr constant [9 x i8] c"no value\00", align 1
@.str.195 = private unnamed_addr constant [20 x i8] c"stack overflow (%s)\00", align 1

; Function Attrs: nounwind uwtable
define internal void @luaD_growstack(ptr noundef %0, i32 noundef %1) #0 {
  %3 = alloca ptr, align 8
  %4 = alloca i32, align 4
  store ptr %0, ptr %3, align 8, !tbaa !11
  store i32 %1, ptr %4, align 4, !tbaa !4
  %5 = load i32, ptr %4, align 4, !tbaa !4
  %6 = load ptr, ptr %3, align 8, !tbaa !11
  %7 = getelementptr inbounds nuw %struct.lua_State, ptr %6, i32 0, i32 13
  %8 = load i32, ptr %7, align 8, !tbaa !100
  %9 = icmp sle i32 %5, %8
  br i1 %9, label %10, label %16

10:                                               ; preds = %2
  %11 = load ptr, ptr %3, align 8, !tbaa !11
  %12 = load ptr, ptr %3, align 8, !tbaa !11
  %13 = getelementptr inbounds nuw %struct.lua_State, ptr %12, i32 0, i32 13
  %14 = load i32, ptr %13, align 8, !tbaa !100
  %15 = mul nsw i32 2, %14
  call void @luaD_reallocstack(ptr noundef %11, i32 noundef %15)
  br label %23

16:                                               ; preds = %2
  %17 = load ptr, ptr %3, align 8, !tbaa !11
  %18 = load ptr, ptr %3, align 8, !tbaa !11
  %19 = getelementptr inbounds nuw %struct.lua_State, ptr %18, i32 0, i32 13
  %20 = load i32, ptr %19, align 8, !tbaa !100
  %21 = load i32, ptr %4, align 4, !tbaa !4
  %22 = add nsw i32 %20, %21
  call void @luaD_reallocstack(ptr noundef %17, i32 noundef %22)
  br label %23

23:                                               ; preds = %16, %10
  ret void
}

; Function Attrs: nounwind uwtable
define internal ptr @lua_typename(ptr noundef %0, i32 noundef %1) #0 {
  %3 = alloca ptr, align 8
  %4 = alloca i32, align 4
  store ptr %0, ptr %3, align 8, !tbaa !11
  store i32 %1, ptr %4, align 4, !tbaa !4
  %5 = load i32, ptr %4, align 4, !tbaa !4
  %6 = icmp eq i32 %5, -1
  br i1 %6, label %7, label %8

7:                                                ; preds = %2
  br label %13

8:                                                ; preds = %2
  %9 = load i32, ptr %4, align 4, !tbaa !4
  %10 = sext i32 %9 to i64
  %11 = getelementptr inbounds [11 x ptr], ptr @luaT_typenames, i64 0, i64 %10
  %12 = load ptr, ptr %11, align 8, !tbaa !13
  br label %13

13:                                               ; preds = %8, %7
  %14 = phi ptr [ @.str.133, %7 ], [ %12, %8 ]
  ret ptr %14
}

; Function Attrs: nounwind uwtable
define internal ptr @index2adr(ptr noundef %0, i32 noundef %1) #0 {
  %3 = alloca ptr, align 8
  %4 = alloca ptr, align 8
  %5 = alloca i32, align 4
  %6 = alloca ptr, align 8
  %7 = alloca i32, align 4
  %8 = alloca ptr, align 8
  %9 = alloca ptr, align 8
  %10 = alloca ptr, align 8
  store ptr %0, ptr %4, align 8, !tbaa !11
  store i32 %1, ptr %5, align 4, !tbaa !4
  %11 = load i32, ptr %5, align 4, !tbaa !4
  %12 = icmp sgt i32 %11, 0
  br i1 %12, label %13, label %30

13:                                               ; preds = %2
  call void @llvm.lifetime.start.p0(i64 8, ptr %6) #14
  %14 = load ptr, ptr %4, align 8, !tbaa !11
  %15 = getelementptr inbounds nuw %struct.lua_State, ptr %14, i32 0, i32 5
  %16 = load ptr, ptr %15, align 8, !tbaa !67
  %17 = load i32, ptr %5, align 4, !tbaa !4
  %18 = sub nsw i32 %17, 1
  %19 = sext i32 %18 to i64
  %20 = getelementptr inbounds %struct.lua_TValue, ptr %16, i64 %19
  store ptr %20, ptr %6, align 8, !tbaa !44
  %21 = load ptr, ptr %6, align 8, !tbaa !44
  %22 = load ptr, ptr %4, align 8, !tbaa !11
  %23 = getelementptr inbounds nuw %struct.lua_State, ptr %22, i32 0, i32 4
  %24 = load ptr, ptr %23, align 8, !tbaa !43
  %25 = icmp uge ptr %21, %24
  br i1 %25, label %26, label %27

26:                                               ; preds = %13
  store ptr @luaO_nilobject_, ptr %3, align 8
  store i32 1, ptr %7, align 4
  br label %29

27:                                               ; preds = %13
  %28 = load ptr, ptr %6, align 8, !tbaa !44
  store ptr %28, ptr %3, align 8
  store i32 1, ptr %7, align 4
  br label %29

29:                                               ; preds = %27, %26
  call void @llvm.lifetime.end.p0(i64 8, ptr %6) #14
  br label %95

30:                                               ; preds = %2
  %31 = load i32, ptr %5, align 4, !tbaa !4
  %32 = icmp sgt i32 %31, -10000
  br i1 %32, label %33, label %40

33:                                               ; preds = %30
  %34 = load ptr, ptr %4, align 8, !tbaa !11
  %35 = getelementptr inbounds nuw %struct.lua_State, ptr %34, i32 0, i32 4
  %36 = load ptr, ptr %35, align 8, !tbaa !43
  %37 = load i32, ptr %5, align 4, !tbaa !4
  %38 = sext i32 %37 to i64
  %39 = getelementptr inbounds %struct.lua_TValue, ptr %36, i64 %38
  store ptr %39, ptr %3, align 8
  br label %95

40:                                               ; preds = %30
  %41 = load i32, ptr %5, align 4, !tbaa !4
  switch i32 %41, label %69 [
    i32 -10000, label %42
    i32 -10001, label %47
    i32 -10002, label %66
  ]

42:                                               ; preds = %40
  %43 = load ptr, ptr %4, align 8, !tbaa !11
  %44 = getelementptr inbounds nuw %struct.lua_State, ptr %43, i32 0, i32 6
  %45 = load ptr, ptr %44, align 8, !tbaa !25
  %46 = getelementptr inbounds nuw %struct.global_State, ptr %45, i32 0, i32 20
  store ptr %46, ptr %3, align 8
  br label %95

47:                                               ; preds = %40
  call void @llvm.lifetime.start.p0(i64 8, ptr %8) #14
  %48 = load ptr, ptr %4, align 8, !tbaa !11
  %49 = getelementptr inbounds nuw %struct.lua_State, ptr %48, i32 0, i32 7
  %50 = load ptr, ptr %49, align 8, !tbaa !58
  %51 = getelementptr inbounds nuw %struct.CallInfo, ptr %50, i32 0, i32 1
  %52 = load ptr, ptr %51, align 8, !tbaa !117
  %53 = getelementptr inbounds nuw %struct.lua_TValue, ptr %52, i32 0, i32 0
  %54 = load ptr, ptr %53, align 8, !tbaa !45
  store ptr %54, ptr %8, align 8, !tbaa !191
  call void @llvm.lifetime.start.p0(i64 8, ptr %9) #14
  %55 = load ptr, ptr %4, align 8, !tbaa !11
  %56 = getelementptr inbounds nuw %struct.lua_State, ptr %55, i32 0, i32 23
  store ptr %56, ptr %9, align 8, !tbaa !44
  %57 = load ptr, ptr %8, align 8, !tbaa !191
  %58 = getelementptr inbounds nuw %struct.CClosure, ptr %57, i32 0, i32 6
  %59 = load ptr, ptr %58, align 8, !tbaa !45
  %60 = load ptr, ptr %9, align 8, !tbaa !44
  %61 = getelementptr inbounds nuw %struct.lua_TValue, ptr %60, i32 0, i32 0
  store ptr %59, ptr %61, align 8, !tbaa !45
  %62 = load ptr, ptr %9, align 8, !tbaa !44
  %63 = getelementptr inbounds nuw %struct.lua_TValue, ptr %62, i32 0, i32 1
  store i32 5, ptr %63, align 8, !tbaa !46
  call void @llvm.lifetime.end.p0(i64 8, ptr %9) #14
  %64 = load ptr, ptr %4, align 8, !tbaa !11
  %65 = getelementptr inbounds nuw %struct.lua_State, ptr %64, i32 0, i32 23
  store ptr %65, ptr %3, align 8
  store i32 1, ptr %7, align 4
  call void @llvm.lifetime.end.p0(i64 8, ptr %8) #14
  br label %95

66:                                               ; preds = %40
  %67 = load ptr, ptr %4, align 8, !tbaa !11
  %68 = getelementptr inbounds nuw %struct.lua_State, ptr %67, i32 0, i32 22
  store ptr %68, ptr %3, align 8
  br label %95

69:                                               ; preds = %40
  call void @llvm.lifetime.start.p0(i64 8, ptr %10) #14
  %70 = load ptr, ptr %4, align 8, !tbaa !11
  %71 = getelementptr inbounds nuw %struct.lua_State, ptr %70, i32 0, i32 7
  %72 = load ptr, ptr %71, align 8, !tbaa !58
  %73 = getelementptr inbounds nuw %struct.CallInfo, ptr %72, i32 0, i32 1
  %74 = load ptr, ptr %73, align 8, !tbaa !117
  %75 = getelementptr inbounds nuw %struct.lua_TValue, ptr %74, i32 0, i32 0
  %76 = load ptr, ptr %75, align 8, !tbaa !45
  store ptr %76, ptr %10, align 8, !tbaa !191
  %77 = load i32, ptr %5, align 4, !tbaa !4
  %78 = sub nsw i32 -10002, %77
  store i32 %78, ptr %5, align 4, !tbaa !4
  %79 = load i32, ptr %5, align 4, !tbaa !4
  %80 = load ptr, ptr %10, align 8, !tbaa !191
  %81 = getelementptr inbounds nuw %struct.CClosure, ptr %80, i32 0, i32 4
  %82 = load i8, ptr %81, align 1, !tbaa !45
  %83 = zext i8 %82 to i32
  %84 = icmp sle i32 %79, %83
  br i1 %84, label %85, label %92

85:                                               ; preds = %69
  %86 = load ptr, ptr %10, align 8, !tbaa !191
  %87 = getelementptr inbounds nuw %struct.CClosure, ptr %86, i32 0, i32 8
  %88 = load i32, ptr %5, align 4, !tbaa !4
  %89 = sub nsw i32 %88, 1
  %90 = sext i32 %89 to i64
  %91 = getelementptr inbounds [1 x %struct.lua_TValue], ptr %87, i64 0, i64 %90
  br label %93

92:                                               ; preds = %69
  br label %93

93:                                               ; preds = %92, %85
  %94 = phi ptr [ %91, %85 ], [ @luaO_nilobject_, %92 ]
  store ptr %94, ptr %3, align 8
  store i32 1, ptr %7, align 4
  call void @llvm.lifetime.end.p0(i64 8, ptr %10) #14
  br label %95

95:                                               ; preds = %93, %66, %47, %42, %33, %29
  %96 = load ptr, ptr %3, align 8
  ret ptr %96
}

; Function Attrs: nounwind uwtable
define internal i32 @lua_checkstack(ptr noundef %0, i32 noundef %1) #0 {
  %3 = alloca ptr, align 8
  %4 = alloca i32, align 4
  %5 = alloca i32, align 4
  store ptr %0, ptr %3, align 8, !tbaa !11
  store i32 %1, ptr %4, align 4, !tbaa !4
  call void @llvm.lifetime.start.p0(i64 4, ptr %5) #14
  store i32 1, ptr %5, align 4, !tbaa !4
  %6 = load i32, ptr %4, align 4, !tbaa !4
  %7 = icmp sgt i32 %6, 8000
  br i1 %7, label %23, label %8

8:                                                ; preds = %2
  %9 = load ptr, ptr %3, align 8, !tbaa !11
  %10 = getelementptr inbounds nuw %struct.lua_State, ptr %9, i32 0, i32 4
  %11 = load ptr, ptr %10, align 8, !tbaa !43
  %12 = load ptr, ptr %3, align 8, !tbaa !11
  %13 = getelementptr inbounds nuw %struct.lua_State, ptr %12, i32 0, i32 5
  %14 = load ptr, ptr %13, align 8, !tbaa !67
  %15 = ptrtoint ptr %11 to i64
  %16 = ptrtoint ptr %14 to i64
  %17 = sub i64 %15, %16
  %18 = sdiv exact i64 %17, 16
  %19 = load i32, ptr %4, align 4, !tbaa !4
  %20 = sext i32 %19 to i64
  %21 = add nsw i64 %18, %20
  %22 = icmp sgt i64 %21, 8000
  br i1 %22, label %23, label %24

23:                                               ; preds = %8, %2
  store i32 0, ptr %5, align 4, !tbaa !4
  br label %71

24:                                               ; preds = %8
  %25 = load i32, ptr %4, align 4, !tbaa !4
  %26 = icmp sgt i32 %25, 0
  br i1 %26, label %27, label %70

27:                                               ; preds = %24
  %28 = load ptr, ptr %3, align 8, !tbaa !11
  %29 = getelementptr inbounds nuw %struct.lua_State, ptr %28, i32 0, i32 9
  %30 = load ptr, ptr %29, align 8, !tbaa !116
  %31 = load ptr, ptr %3, align 8, !tbaa !11
  %32 = getelementptr inbounds nuw %struct.lua_State, ptr %31, i32 0, i32 4
  %33 = load ptr, ptr %32, align 8, !tbaa !43
  %34 = ptrtoint ptr %30 to i64
  %35 = ptrtoint ptr %33 to i64
  %36 = sub i64 %34, %35
  %37 = load i32, ptr %4, align 4, !tbaa !4
  %38 = mul nsw i32 %37, 16
  %39 = sext i32 %38 to i64
  %40 = icmp sle i64 %36, %39
  br i1 %40, label %41, label %44

41:                                               ; preds = %27
  %42 = load ptr, ptr %3, align 8, !tbaa !11
  %43 = load i32, ptr %4, align 4, !tbaa !4
  call void @luaD_growstack(ptr noundef %42, i32 noundef %43)
  br label %45

44:                                               ; preds = %27
  br label %45

45:                                               ; preds = %44, %41
  %46 = load ptr, ptr %3, align 8, !tbaa !11
  %47 = getelementptr inbounds nuw %struct.lua_State, ptr %46, i32 0, i32 7
  %48 = load ptr, ptr %47, align 8, !tbaa !58
  %49 = getelementptr inbounds nuw %struct.CallInfo, ptr %48, i32 0, i32 2
  %50 = load ptr, ptr %49, align 8, !tbaa !59
  %51 = load ptr, ptr %3, align 8, !tbaa !11
  %52 = getelementptr inbounds nuw %struct.lua_State, ptr %51, i32 0, i32 4
  %53 = load ptr, ptr %52, align 8, !tbaa !43
  %54 = load i32, ptr %4, align 4, !tbaa !4
  %55 = sext i32 %54 to i64
  %56 = getelementptr inbounds %struct.lua_TValue, ptr %53, i64 %55
  %57 = icmp ult ptr %50, %56
  br i1 %57, label %58, label %69

58:                                               ; preds = %45
  %59 = load ptr, ptr %3, align 8, !tbaa !11
  %60 = getelementptr inbounds nuw %struct.lua_State, ptr %59, i32 0, i32 4
  %61 = load ptr, ptr %60, align 8, !tbaa !43
  %62 = load i32, ptr %4, align 4, !tbaa !4
  %63 = sext i32 %62 to i64
  %64 = getelementptr inbounds %struct.lua_TValue, ptr %61, i64 %63
  %65 = load ptr, ptr %3, align 8, !tbaa !11
  %66 = getelementptr inbounds nuw %struct.lua_State, ptr %65, i32 0, i32 7
  %67 = load ptr, ptr %66, align 8, !tbaa !58
  %68 = getelementptr inbounds nuw %struct.CallInfo, ptr %67, i32 0, i32 2
  store ptr %64, ptr %68, align 8, !tbaa !59
  br label %69

69:                                               ; preds = %58, %45
  br label %70

70:                                               ; preds = %69, %24
  br label %71

71:                                               ; preds = %70, %23
  %72 = load i32, ptr %5, align 4, !tbaa !4
  call void @llvm.lifetime.end.p0(i64 4, ptr %5) #14
  ret i32 %72
}

; Function Attrs: nounwind uwtable
define internal void @tag_error(ptr noundef %0, i32 noundef %1, i32 noundef %2) #0 {
  %4 = alloca ptr, align 8
  %5 = alloca i32, align 4
  %6 = alloca i32, align 4
  store ptr %0, ptr %4, align 8, !tbaa !11
  store i32 %1, ptr %5, align 4, !tbaa !4
  store i32 %2, ptr %6, align 4, !tbaa !4
  %7 = load ptr, ptr %4, align 8, !tbaa !11
  %8 = load i32, ptr %5, align 4, !tbaa !4
  %9 = load ptr, ptr %4, align 8, !tbaa !11
  %10 = load i32, ptr %6, align 4, !tbaa !4
  %11 = call ptr @lua_typename(ptr noundef %9, i32 noundef %10)
  %12 = call i32 @luaL_typerror(ptr noundef %7, i32 noundef %8, ptr noundef %11)
  ret void
}

; Function Attrs: nounwind uwtable
define internal void @lua_settop(ptr noundef %0, i32 noundef %1) #0 {
  %3 = alloca ptr, align 8
  %4 = alloca i32, align 4
  store ptr %0, ptr %3, align 8, !tbaa !11
  store i32 %1, ptr %4, align 4, !tbaa !4
  %5 = load i32, ptr %4, align 4, !tbaa !4
  %6 = icmp sge i32 %5, 0
  br i1 %6, label %7, label %34

7:                                                ; preds = %2
  br label %8

8:                                                ; preds = %19, %7
  %9 = load ptr, ptr %3, align 8, !tbaa !11
  %10 = getelementptr inbounds nuw %struct.lua_State, ptr %9, i32 0, i32 4
  %11 = load ptr, ptr %10, align 8, !tbaa !43
  %12 = load ptr, ptr %3, align 8, !tbaa !11
  %13 = getelementptr inbounds nuw %struct.lua_State, ptr %12, i32 0, i32 5
  %14 = load ptr, ptr %13, align 8, !tbaa !67
  %15 = load i32, ptr %4, align 4, !tbaa !4
  %16 = sext i32 %15 to i64
  %17 = getelementptr inbounds %struct.lua_TValue, ptr %14, i64 %16
  %18 = icmp ult ptr %11, %17
  br i1 %18, label %19, label %25

19:                                               ; preds = %8
  %20 = load ptr, ptr %3, align 8, !tbaa !11
  %21 = getelementptr inbounds nuw %struct.lua_State, ptr %20, i32 0, i32 4
  %22 = load ptr, ptr %21, align 8, !tbaa !43
  %23 = getelementptr inbounds nuw %struct.lua_TValue, ptr %22, i32 1
  store ptr %23, ptr %21, align 8, !tbaa !43
  %24 = getelementptr inbounds nuw %struct.lua_TValue, ptr %22, i32 0, i32 1
  store i32 0, ptr %24, align 8, !tbaa !46
  br label %8, !llvm.loop !296

25:                                               ; preds = %8
  %26 = load ptr, ptr %3, align 8, !tbaa !11
  %27 = getelementptr inbounds nuw %struct.lua_State, ptr %26, i32 0, i32 5
  %28 = load ptr, ptr %27, align 8, !tbaa !67
  %29 = load i32, ptr %4, align 4, !tbaa !4
  %30 = sext i32 %29 to i64
  %31 = getelementptr inbounds %struct.lua_TValue, ptr %28, i64 %30
  %32 = load ptr, ptr %3, align 8, !tbaa !11
  %33 = getelementptr inbounds nuw %struct.lua_State, ptr %32, i32 0, i32 4
  store ptr %31, ptr %33, align 8, !tbaa !43
  br label %42

34:                                               ; preds = %2
  %35 = load i32, ptr %4, align 4, !tbaa !4
  %36 = add nsw i32 %35, 1
  %37 = load ptr, ptr %3, align 8, !tbaa !11
  %38 = getelementptr inbounds nuw %struct.lua_State, ptr %37, i32 0, i32 4
  %39 = load ptr, ptr %38, align 8, !tbaa !43
  %40 = sext i32 %36 to i64
  %41 = getelementptr inbounds %struct.lua_TValue, ptr %39, i64 %40
  store ptr %41, ptr %38, align 8, !tbaa !43
  br label %42

42:                                               ; preds = %34, %25
  ret void
}

; Function Attrs: nounwind uwtable
define internal i32 @lua_type(ptr noundef %0, i32 noundef %1) #0 {
  %3 = alloca ptr, align 8
  %4 = alloca i32, align 4
  %5 = alloca ptr, align 8
  store ptr %0, ptr %3, align 8, !tbaa !11
  store i32 %1, ptr %4, align 4, !tbaa !4
  call void @llvm.lifetime.start.p0(i64 8, ptr %5) #14
  %6 = load ptr, ptr %3, align 8, !tbaa !11
  %7 = load i32, ptr %4, align 4, !tbaa !4
  %8 = call ptr @index2adr(ptr noundef %6, i32 noundef %7)
  store ptr %8, ptr %5, align 8, !tbaa !44
  %9 = load ptr, ptr %5, align 8, !tbaa !44
  %10 = icmp eq ptr %9, @luaO_nilobject_
  br i1 %10, label %11, label %12

11:                                               ; preds = %2
  br label %16

12:                                               ; preds = %2
  %13 = load ptr, ptr %5, align 8, !tbaa !44
  %14 = getelementptr inbounds nuw %struct.lua_TValue, ptr %13, i32 0, i32 1
  %15 = load i32, ptr %14, align 8, !tbaa !46
  br label %16

16:                                               ; preds = %12, %11
  %17 = phi i32 [ -1, %11 ], [ %15, %12 ]
  call void @llvm.lifetime.end.p0(i64 8, ptr %5) #14
  ret i32 %17
}

; Function Attrs: nounwind uwtable
define internal void @luaL_checkstack(ptr noundef %0, i32 noundef %1, ptr noundef %2) #0 {
  %4 = alloca ptr, align 8
  %5 = alloca i32, align 4
  %6 = alloca ptr, align 8
  store ptr %0, ptr %4, align 8, !tbaa !11
  store i32 %1, ptr %5, align 4, !tbaa !4
  store ptr %2, ptr %6, align 8, !tbaa !13
  %7 = load ptr, ptr %4, align 8, !tbaa !11
  %8 = load i32, ptr %5, align 4, !tbaa !4
  %9 = call i32 @lua_checkstack(ptr noundef %7, i32 noundef %8)
  %10 = icmp ne i32 %9, 0
  br i1 %10, label %15, label %11

11:                                               ; preds = %3
  %12 = load ptr, ptr %4, align 8, !tbaa !11
  %13 = load ptr, ptr %6, align 8, !tbaa !13
  %14 = call i32 (ptr, ptr, ...) @luaL_error(ptr noundef %12, ptr noundef @.str.195, ptr noundef %13)
  br label %15

15:                                               ; preds = %11, %3
  ret void
}

; Function Attrs: nounwind uwtable
define internal void @luaL_checktype(ptr noundef %0, i32 noundef %1, i32 noundef %2) #0 {
  %4 = alloca ptr, align 8
  %5 = alloca i32, align 4
  %6 = alloca i32, align 4
  store ptr %0, ptr %4, align 8, !tbaa !11
  store i32 %1, ptr %5, align 4, !tbaa !4
  store i32 %2, ptr %6, align 4, !tbaa !4
  %7 = load ptr, ptr %4, align 8, !tbaa !11
  %8 = load i32, ptr %5, align 4, !tbaa !4
  %9 = call i32 @lua_type(ptr noundef %7, i32 noundef %8)
  %10 = load i32, ptr %6, align 4, !tbaa !4
  %11 = icmp ne i32 %9, %10
  br i1 %11, label %12, label %16

12:                                               ; preds = %3
  %13 = load ptr, ptr %4, align 8, !tbaa !11
  %14 = load i32, ptr %5, align 4, !tbaa !4
  %15 = load i32, ptr %6, align 4, !tbaa !4
  call void @tag_error(ptr noundef %13, i32 noundef %14, i32 noundef %15)
  br label %16

16:                                               ; preds = %12, %3
  ret void
}

; Function Attrs: nounwind uwtable
define internal i32 @sort(ptr noundef %0) #0 {
  %2 = alloca ptr, align 8
  %3 = alloca i32, align 4
  store ptr %0, ptr %2, align 8, !tbaa !11
  call void @llvm.lifetime.start.p0(i64 4, ptr %3) #14
  %4 = load ptr, ptr %2, align 8, !tbaa !11
  call void @luaL_checktype(ptr noundef %4, i32 noundef 1, i32 noundef 5)
  %5 = load ptr, ptr %2, align 8, !tbaa !11
  %6 = call i64 @lua_objlen(ptr noundef %5, i32 noundef 1)
  %7 = trunc i64 %6 to i32
  store i32 %7, ptr %3, align 4, !tbaa !4
  %8 = load ptr, ptr %2, align 8, !tbaa !11
  call void @luaL_checkstack(ptr noundef %8, i32 noundef 40, ptr noundef @.str.7)
  %9 = load ptr, ptr %2, align 8, !tbaa !11
  %10 = call i32 @lua_type(ptr noundef %9, i32 noundef 2)
  %11 = icmp sle i32 %10, 0
  br i1 %11, label %14, label %12

12:                                               ; preds = %1
  %13 = load ptr, ptr %2, align 8, !tbaa !11
  call void @luaL_checktype(ptr noundef %13, i32 noundef 2, i32 noundef 6)
  br label %14

14:                                               ; preds = %12, %1
  %15 = load ptr, ptr %2, align 8, !tbaa !11
  call void @lua_settop(ptr noundef %15, i32 noundef 2)
  %16 = load ptr, ptr %2, align 8, !tbaa !11
  %17 = load i32, ptr %3, align 4, !tbaa !4
  call void @auxsort(ptr noundef %16, i32 noundef 1, i32 noundef %17)
  call void @llvm.lifetime.end.p0(i64 4, ptr %3) #14
  ret i32 0
}