; Function Attrs: nounwind uwtable
define internal noundef i32 @sort(ptr noundef %0) #0 {
  %2 = getelementptr inbounds nuw i8, ptr %0, i64 24
  %3 = load ptr, ptr %2, align 8, !tbaa !86
  %4 = getelementptr inbounds nuw i8, ptr %0, i64 16
  %5 = load ptr, ptr %4, align 8, !tbaa !62
  %.not28.i.i.i = icmp uge ptr %3, %5
  %6 = icmp eq ptr %3, @luaO_nilobject_
  %or.cond.i = or i1 %6, %.not28.i.i.i
  br i1 %or.cond.i, label %lua_type.exit.thread.i, label %lua_type.exit.i

lua_type.exit.i:                                  ; preds = %1
  %7 = getelementptr i8, ptr %3, i64 8
  %8 = load i32, ptr %7, align 8, !tbaa !69
  %.not.i = icmp eq i32 %8, 5
  br i1 %.not.i, label %luaL_checktype.exit, label %lua_type.exit.thread.i

lua_type.exit.thread.i:                           ; preds = %lua_type.exit.i, %1
  tail call fastcc void @luaL_typerror(ptr noundef nonnull %0, i32 noundef 1, ptr noundef nonnull @.str.27)
  unreachable

luaL_checktype.exit:                              ; preds = %lua_type.exit.i
  %9 = tail call fastcc i64 @lua_objlen(ptr noundef nonnull %0, i32 noundef 1)
  %10 = load ptr, ptr %4, align 8, !tbaa !62
  %11 = load ptr, ptr %2, align 8, !tbaa !86
  %12 = ptrtoint ptr %10 to i64
  %13 = ptrtoint ptr %11 to i64
  %14 = sub i64 %12, %13
  %15 = icmp sgt i64 %14, 127360
  br i1 %15, label %lua_checkstack.exit.i, label %16

16:                                               ; preds = %luaL_checktype.exit
  %17 = getelementptr inbounds nuw i8, ptr %0, i64 56
  %18 = load ptr, ptr %17, align 8, !tbaa !118
  %19 = ptrtoint ptr %18 to i64
  %20 = sub i64 %19, %12
  %.not.i.i = icmp sgt i64 %20, 640
  br i1 %.not.i.i, label %26, label %21

21:                                               ; preds = %16
  %22 = getelementptr inbounds nuw i8, ptr %0, i64 88
  %23 = load i32, ptr %22, align 8, !tbaa !31
  %.not.i.i.i = icmp slt i32 %23, 40
  %24 = add nsw i32 %23, 40
  %25 = shl nsw i32 %23, 1
  %.sink.i.i.i = select i1 %.not.i.i.i, i32 %24, i32 %25
  tail call fastcc void @luaD_reallocstack(ptr noundef nonnull %0, i32 noundef %.sink.i.i.i)
  %.pre.i.i = load ptr, ptr %4, align 8, !tbaa !62
  br label %26

26:                                               ; preds = %21, %16
  %27 = phi ptr [ %10, %16 ], [ %.pre.i.i, %21 ]
  %28 = getelementptr inbounds nuw i8, ptr %0, i64 40
  %29 = load ptr, ptr %28, align 8, !tbaa !83
  %30 = getelementptr inbounds nuw i8, ptr %29, i64 16
  %31 = load ptr, ptr %30, align 8, !tbaa !119
  %32 = getelementptr inbounds nuw i8, ptr %27, i64 640
  %33 = icmp ult ptr %31, %32
  br i1 %33, label %34, label %luaL_checkstack.exit

34:                                               ; preds = %26
  store ptr %32, ptr %30, align 8, !tbaa !119
  br label %luaL_checkstack.exit

lua_checkstack.exit.i:                            ; preds = %luaL_checktype.exit
  tail call void (ptr, ptr, ...) @luaL_error(ptr noundef nonnull %0, ptr noundef nonnull @.str.195, ptr noundef nonnull @.str.7)
  unreachable

luaL_checkstack.exit:                             ; preds = %26, %34
  %35 = load ptr, ptr %2, align 8, !tbaa !86
  %36 = getelementptr i8, ptr %35, i64 32
  %37 = getelementptr i8, ptr %35, i64 16
  %.not28.i.i = icmp uge ptr %37, %27
  %38 = icmp eq ptr %37, @luaO_nilobject_
  %or.cond = or i1 %.not28.i.i, %38
  br i1 %or.cond, label %luaL_checktype.exit12, label %lua_type.exit

lua_type.exit:                                    ; preds = %luaL_checkstack.exit
  %39 = getelementptr i8, ptr %35, i64 24
  %40 = load i32, ptr %39, align 8, !tbaa !69
  %41 = icmp slt i32 %40, 1
  %.not.i10 = icmp eq i32 %40, 6
  %or.cond13 = or i1 %41, %.not.i10
  br i1 %or.cond13, label %luaL_checktype.exit12, label %lua_type.exit.thread.i11

lua_type.exit.thread.i11:                         ; preds = %lua_type.exit
  tail call fastcc void @luaL_typerror(ptr noundef nonnull %0, i32 noundef 2, ptr noundef nonnull @.str.28)
  unreachable

luaL_checktype.exit12:                            ; preds = %luaL_checkstack.exit, %lua_type.exit
  %42 = icmp ult ptr %27, %36
  br i1 %42, label %.lr.ph.i, label %lua_settop.exit

.lr.ph.i:                                         ; preds = %luaL_checktype.exit12, %.lr.ph.i
  %43 = phi ptr [ %44, %.lr.ph.i ], [ %27, %luaL_checktype.exit12 ]
  %44 = getelementptr inbounds nuw i8, ptr %43, i64 16
  %45 = getelementptr inbounds nuw i8, ptr %43, i64 8
  store i32 0, ptr %45, align 8, !tbaa !69
  %46 = icmp ult ptr %44, %36
  br i1 %46, label %.lr.ph.i, label %lua_settop.exit, !llvm.loop !110

lua_settop.exit:                                  ; preds = %.lr.ph.i, %luaL_checktype.exit12
  %47 = trunc i64 %9 to i32
  store ptr %36, ptr %4, align 8, !tbaa !62
  tail call fastcc void @auxsort(ptr noundef nonnull %0, i32 noundef 1, i32 noundef %47)
  ret i32 0
}